; Function Attrs: mustprogress nofree norecurse nosync nounwind willreturn memory(none) uwtable
define internal i32 @get_sqrt_h(i16 noundef signext %0, i32 noundef %1) #9 {
  %3 = sdiv i32 %1, 2
  %4 = sitofp i32 %3 to double
  %5 = icmp sgt i16 %0, 0
  %6 = tail call i16 @llvm.abs.i16(i16 %0, i1 false)
  %7 = uitofp i16 %6 to double
  %8 = tail call nsz double @llvm.sqrt.f64(double %7)
  %9 = fmul nsz double %8, %4
  %10 = fdiv nsz double %9, 0x4066A087C5D584F3
  %11 = select nsz i1 %5, double -1.000000e+00, double 1.000000e+00
  %12 = tail call nsz double @llvm.fmuladd.f64(double %11, double %10, double %4)
  %13 = fptosi double %12 to i32
  ret i32 %13
}